; Function Attrs: mustprogress uwtable
define hidden noundef zeroext i1 @_ZN18OpenImageIO_v2_6_08PSDInput4openERKNSt7__cxx1112basic_stringIcSt11char_traitsIcESaIcEEERNS_9ImageSpecERKS9_(ptr noundef nonnull align 8 dereferenceable(840) %this, ptr noundef nonnull align 8 dereferenceable(32) %name, ptr noundef nonnull align 8 dereferenceable(160) %newspec, ptr noundef nonnull align 8 dereferenceable(160) %config) unnamed_addr #5 align 2 personality ptr @__gxx_personality_v0 {
entry:
  %agg.tmp = alloca %"class.OpenImageIO_v2_6_0::basic_string_view", align 8
  %agg.tmp2 = alloca %"class.OpenImageIO_v2_6_0::basic_string_view", align 8
  %agg.tmp5 = alloca %"class.OpenImageIO_v2_6_0::basic_string_view", align 8
  store ptr @.str.37, ptr %agg.tmp, align 8
  %m_len.i = getelementptr inbounds i8, ptr %agg.tmp, i64 8
  store i64 11, ptr %m_len.i, align 8
  %call = call noundef i32 @_ZNK18OpenImageIO_v2_6_09ImageSpec17get_int_attributeENS_17basic_string_viewIcSt11char_traitsIcEEEi(ptr noundef nonnull align 8 dereferenceable(160) %config, ptr noundef nonnull %agg.tmp, i32 noundef 0)
  %tobool.not = icmp eq i32 %call, 0
  br i1 %tobool.not, label %lor.rhs, label %lor.end

lor.rhs:                                          ; preds = %entry
  store ptr @.str.38, ptr %agg.tmp2, align 8
  %m_len.i5 = getelementptr inbounds i8, ptr %agg.tmp2, i64 8
  store i64 13, ptr %m_len.i5, align 8
  %call3 = call noundef i32 @_ZNK18OpenImageIO_v2_6_09ImageSpec17get_int_attributeENS_17basic_string_viewIcSt11char_traitsIcEEEi(ptr noundef nonnull align 8 dereferenceable(160) %config, ptr noundef nonnull %agg.tmp2, i32 noundef 0)
  %tobool4 = icmp ne i32 %call3, 0
  %0 = zext i1 %tobool4 to i8
  br label %lor.end

lor.end:                                          ; preds = %lor.rhs, %entry
  %frombool = phi i8 [ 1, %entry ], [ %0, %lor.rhs ]
  %m_WantRaw = getelementptr inbounds i8, ptr %this, i64 568
  store i8 %frombool, ptr %m_WantRaw, align 8
  store ptr @.str.39, ptr %agg.tmp5, align 8
  %m_len.i7 = getelementptr inbounds i8, ptr %agg.tmp5, i64 8
  store i64 22, ptr %m_len.i7, align 8
  %call6 = call noundef i32 @_ZNK18OpenImageIO_v2_6_09ImageSpec17get_int_attributeENS_17basic_string_viewIcSt11char_traitsIcEEEi(ptr noundef nonnull align 8 dereferenceable(160) %config, ptr noundef nonnull %agg.tmp5, i32 noundef 0)
  %cmp = icmp eq i32 %call6, 1
  br i1 %cmp, label %if.then, label %if.end

if.then:                                          ; preds = %lor.end
  %m_keep_unassociated_alpha = getelementptr inbounds i8, ptr %this, i64 652
  store i8 1, ptr %m_keep_unassociated_alpha, align 4
  br label %if.end

if.end:                                           ; preds = %if.then, %lor.end
  call void @_ZN18OpenImageIO_v2_6_010ImageInput28ioproxy_retrieve_from_configERKNS_9ImageSpecE(ptr noundef nonnull align 8 dereferenceable(184) %this, ptr noundef nonnull align 8 dereferenceable(160) %config)
  %call7 = call noundef zeroext i1 @_ZN18OpenImageIO_v2_6_08PSDInput4openERKNSt7__cxx1112basic_stringIcSt11char_traitsIcESaIcEEERNS_9ImageSpecE(ptr noundef nonnull align 8 dereferenceable(840) %this, ptr noundef nonnull align 8 dereferenceable(32) %name, ptr noundef nonnull align 8 dereferenceable(160) %newspec)
  ret i1 %call7
}